target datalayout = "e-m:e-p270:32:32-p271:32:32-p272:64:64-i64:64-i128:128-f80:128-n8:16:32:64-S128"
target triple = "x86_64-pc-linux-gnu"

%"class.Json::Features" = type { i8, i8, i8, i8 }
%"class.Json::Reader" = type <{ %"class.std::stack", %"class.std::deque.0", %"class.std::__cxx11::basic_string", ptr, ptr, ptr, ptr, ptr, %"class.std::__cxx11::basic_string", %"class.Json::Features", i8, [3 x i8] }>
%"class.std::stack" = type { %"class.std::deque" }
%"class.std::deque" = type { %"class.std::_Deque_base" }
%"class.std::_Deque_base" = type { %"struct.std::_Deque_base<Json::Value *, std::allocator<Json::Value *>>::_Deque_impl" }
%"struct.std::_Deque_base<Json::Value *, std::allocator<Json::Value *>>::_Deque_impl" = type { %"struct.std::_Deque_base<Json::Value *, std::allocator<Json::Value *>>::_Deque_impl_data" }
%"struct.std::_Deque_base<Json::Value *, std::allocator<Json::Value *>>::_Deque_impl_data" = type { ptr, i64, %"struct.std::_Deque_iterator", %"struct.std::_Deque_iterator" }
%"struct.std::_Deque_iterator" = type { ptr, ptr, ptr, ptr }
%"class.std::deque.0" = type { %"class.std::_Deque_base.1" }
%"class.std::_Deque_base.1" = type { %"struct.std::_Deque_base<Json::Reader::ErrorInfo, std::allocator<Json::Reader::ErrorInfo>>::_Deque_impl" }
%"struct.std::_Deque_base<Json::Reader::ErrorInfo, std::allocator<Json::Reader::ErrorInfo>>::_Deque_impl" = type { %"struct.std::_Deque_base<Json::Reader::ErrorInfo, std::allocator<Json::Reader::ErrorInfo>>::_Deque_impl_data" }
%"struct.std::_Deque_base<Json::Reader::ErrorInfo, std::allocator<Json::Reader::ErrorInfo>>::_Deque_impl_data" = type { ptr, i64, %"struct.std::_Deque_iterator.5", %"struct.std::_Deque_iterator.5" }
%"struct.std::_Deque_iterator.5" = type { ptr, ptr, ptr, ptr }
%"class.std::__cxx11::basic_string" = type { %"struct.std::__cxx11::basic_string<char>::_Alloc_hider", i64, %union.anon }
%"struct.std::__cxx11::basic_string<char>::_Alloc_hider" = type { ptr }
%union.anon = type { i64, [8 x i8] }

; Function Attrs: mustprogress nounwind uwtable
define linkonce_odr dso_local void @_ZNSt15__new_allocatorIPN4Json5ValueEED2Ev(ptr noundef nonnull align 1 dereferenceable(1) %0) unnamed_addr #4 comdat align 2 {
  %2 = alloca ptr, align 8
  store ptr %0, ptr %2, align 8
  ret void
}

; Function Attrs: mustprogress nounwind uwtable
define linkonce_odr dso_local void @_ZNSt15_Deque_iteratorIPN4Json5ValueERS2_PS2_EC2Ev(ptr noundef nonnull align 8 dereferenceable(32) %0) unnamed_addr #4 comdat align 2 {
  %2 = alloca ptr, align 8
  store ptr %0, ptr %2, align 8
  %3 = load ptr, ptr %2, align 8
  %4 = getelementptr inbounds %"struct.std::_Deque_iterator", ptr %3, i32 0, i32 0
  store ptr null, ptr %4, align 8
  %5 = getelementptr inbounds %"struct.std::_Deque_iterator", ptr %3, i32 0, i32 1
  store ptr null, ptr %5, align 8
  %6 = getelementptr inbounds %"struct.std::_Deque_iterator", ptr %3, i32 0, i32 2
  store ptr null, ptr %6, align 8
  %7 = getelementptr inbounds %"struct.std::_Deque_iterator", ptr %3, i32 0, i32 3
  store ptr null, ptr %7, align 8
  ret void
}

; Function Attrs: mustprogress nounwind uwtable
define linkonce_odr dso_local void @_ZNSt15__new_allocatorIPN4Json5ValueEEC2Ev(ptr noundef nonnull align 1 dereferenceable(1) %0) unnamed_addr #4 comdat align 2 {
  %2 = alloca ptr, align 8
  store ptr %0, ptr %2, align 8
  ret void
}

; Function Attrs: mustprogress nounwind uwtable
define linkonce_odr dso_local void @_ZNSt15__new_allocatorIN4Json6Reader9ErrorInfoEED2Ev(ptr noundef nonnull align 1 dereferenceable(1) %0) unnamed_addr #4 comdat align 2 {
  %2 = alloca ptr, align 8
  store ptr %0, ptr %2, align 8
  ret void
}

; Function Attrs: mustprogress nounwind uwtable
define linkonce_odr dso_local void @_ZNSt15_Deque_iteratorIN4Json6Reader9ErrorInfoERS2_PS2_EC2Ev(ptr noundef nonnull align 8 dereferenceable(32) %0) unnamed_addr #4 comdat align 2 {
  %2 = alloca ptr, align 8
  store ptr %0, ptr %2, align 8
  %3 = load ptr, ptr %2, align 8
  %4 = getelementptr inbounds %"struct.std::_Deque_iterator.5", ptr %3, i32 0, i32 0
  store ptr null, ptr %4, align 8
  %5 = getelementptr inbounds %"struct.std::_Deque_iterator.5", ptr %3, i32 0, i32 1
  store ptr null, ptr %5, align 8
  %6 = getelementptr inbounds %"struct.std::_Deque_iterator.5", ptr %3, i32 0, i32 2
  store ptr null, ptr %6, align 8
  %7 = getelementptr inbounds %"struct.std::_Deque_iterator.5", ptr %3, i32 0, i32 3
  store ptr null, ptr %7, align 8
  ret void
}

; Function Attrs: mustprogress nounwind uwtable
define linkonce_odr dso_local void @_ZNSt15__new_allocatorIN4Json6Reader9ErrorInfoEEC2Ev(ptr noundef nonnull align 1 dereferenceable(1) %0) unnamed_addr #4 comdat align 2 {
  %2 = alloca ptr, align 8
  store ptr %0, ptr %2, align 8
  ret void
}

; Function Attrs: mustprogress nounwind uwtable
define linkonce_odr dso_local void @_ZNSaIPN4Json5ValueEED2Ev(ptr noundef nonnull align 1 dereferenceable(1) %0) unnamed_addr #4 comdat align 2 {
  %2 = alloca ptr, align 8
  store ptr %0, ptr %2, align 8
  %3 = load ptr, ptr %2, align 8
  call void @_ZNSt15__new_allocatorIPN4Json5ValueEED2Ev(ptr noundef nonnull align 1 dereferenceable(1) %3) #3
  ret void
}

; Function Attrs: mustprogress nounwind uwtable
define linkonce_odr dso_local void @_ZNSt11_Deque_baseIPN4Json5ValueESaIS2_EE16_Deque_impl_dataC2Ev(ptr noundef nonnull align 8 dereferenceable(80) %0) unnamed_addr #4 comdat align 2 {
  %2 = alloca ptr, align 8
  store ptr %0, ptr %2, align 8
  %3 = load ptr, ptr %2, align 8
  %4 = getelementptr inbounds %"struct.std::_Deque_base<Json::Value *, std::allocator<Json::Value *>>::_Deque_impl_data", ptr %3, i32 0, i32 0
  store ptr null, ptr %4, align 8
  %5 = getelementptr inbounds %"struct.std::_Deque_base<Json::Value *, std::allocator<Json::Value *>>::_Deque_impl_data", ptr %3, i32 0, i32 1
  store i64 0, ptr %5, align 8
  %6 = getelementptr inbounds %"struct.std::_Deque_base<Json::Value *, std::allocator<Json::Value *>>::_Deque_impl_data", ptr %3, i32 0, i32 2
  call void @_ZNSt15_Deque_iteratorIPN4Json5ValueERS2_PS2_EC2Ev(ptr noundef nonnull align 8 dereferenceable(32) %6) #3
  %7 = getelementptr inbounds %"struct.std::_Deque_base<Json::Value *, std::allocator<Json::Value *>>::_Deque_impl_data", ptr %3, i32 0, i32 3
  call void @_ZNSt15_Deque_iteratorIPN4Json5ValueERS2_PS2_EC2Ev(ptr noundef nonnull align 8 dereferenceable(32) %7) #3
  ret void
}

; Function Attrs: mustprogress nounwind uwtable
define linkonce_odr dso_local void @_ZNSaIPN4Json5ValueEEC2Ev(ptr noundef nonnull align 1 dereferenceable(1) %0) unnamed_addr #4 comdat align 2 {
  %2 = alloca ptr, align 8
  store ptr %0, ptr %2, align 8
  %3 = load ptr, ptr %2, align 8
  call void @_ZNSt15__new_allocatorIPN4Json5ValueEEC2Ev(ptr noundef nonnull align 1 dereferenceable(1) %3) #3
  ret void
}

; Function Attrs: mustprogress nounwind uwtable
define linkonce_odr dso_local void @_ZNSaIN4Json6Reader9ErrorInfoEED2Ev(ptr noundef nonnull align 1 dereferenceable(1) %0) unnamed_addr #4 comdat align 2 {
  %2 = alloca ptr, align 8
  store ptr %0, ptr %2, align 8
  %3 = load ptr, ptr %2, align 8
  call void @_ZNSt15__new_allocatorIN4Json6Reader9ErrorInfoEED2Ev(ptr noundef nonnull align 1 dereferenceable(1) %3) #3
  ret void
}

; Function Attrs: mustprogress nounwind uwtable
define linkonce_odr dso_local void @_ZNSt11_Deque_baseIN4Json6Reader9ErrorInfoESaIS2_EE16_Deque_impl_dataC2Ev(ptr noundef nonnull align 8 dereferenceable(80) %0) unnamed_addr #4 comdat align 2 {
  %2 = alloca ptr, align 8
  store ptr %0, ptr %2, align 8
  %3 = load ptr, ptr %2, align 8
  %4 = getelementptr inbounds %"struct.std::_Deque_base<Json::Reader::ErrorInfo, std::allocator<Json::Reader::ErrorInfo>>::_Deque_impl_data", ptr %3, i32 0, i32 0
  store ptr null, ptr %4, align 8
  %5 = getelementptr inbounds %"struct.std::_Deque_base<Json::Reader::ErrorInfo, std::allocator<Json::Reader::ErrorInfo>>::_Deque_impl_data", ptr %3, i32 0, i32 1
  store i64 0, ptr %5, align 8
  %6 = getelementptr inbounds %"struct.std::_Deque_base<Json::Reader::ErrorInfo, std::allocator<Json::Reader::ErrorInfo>>::_Deque_impl_data", ptr %3, i32 0, i32 2
  call void @_ZNSt15_Deque_iteratorIN4Json6Reader9ErrorInfoERS2_PS2_EC2Ev(ptr noundef nonnull align 8 dereferenceable(32) %6) #3
  %7 = getelementptr inbounds %"struct.std::_Deque_base<Json::Reader::ErrorInfo, std::allocator<Json::Reader::ErrorInfo>>::_Deque_impl_data", ptr %3, i32 0, i32 3
  call void @_ZNSt15_Deque_iteratorIN4Json6Reader9ErrorInfoERS2_PS2_EC2Ev(ptr noundef nonnull align 8 dereferenceable(32) %7) #3
  ret void
}

; Function Attrs: mustprogress nounwind uwtable
define linkonce_odr dso_local void @_ZNSaIN4Json6Reader9ErrorInfoEEC2Ev(ptr noundef nonnull align 1 dereferenceable(1) %0) unnamed_addr #4 comdat align 2 {
  %2 = alloca ptr, align 8
  store ptr %0, ptr %2, align 8
  %3 = load ptr, ptr %2, align 8
  call void @_ZNSt15__new_allocatorIN4Json6Reader9ErrorInfoEEC2Ev(ptr noundef nonnull align 1 dereferenceable(1) %3) #3
  ret void
}

; Function Attrs: mustprogress nounwind uwtable
define linkonce_odr dso_local void @_ZNSt11_Deque_baseIPN4Json5ValueESaIS2_EE11_Deque_implD2Ev(ptr noundef nonnull align 8 dereferenceable(80) %0) unnamed_addr #4 comdat align 2 {
  %2 = alloca ptr, align 8
  store ptr %0, ptr %2, align 8
  %3 = load ptr, ptr %2, align 8
  call void @_ZNSaIPN4Json5ValueEED2Ev(ptr noundef nonnull align 1 dereferenceable(1) %3) #3
  ret void
}

; Function Attrs: mustprogress nounwind uwtable
define linkonce_odr dso_local void @_ZNSt11_Deque_baseIPN4Json5ValueESaIS2_EE11_Deque_implC2Ev(ptr noundef nonnull align 8 dereferenceable(80) %0) unnamed_addr #4 comdat align 2 {
  %2 = alloca ptr, align 8
  store ptr %0, ptr %2, align 8
  %3 = load ptr, ptr %2, align 8
  call void @_ZNSaIPN4Json5ValueEEC2Ev(ptr noundef nonnull align 1 dereferenceable(1) %3) #3
  call void @_ZNSt11_Deque_baseIPN4Json5ValueESaIS2_EE16_Deque_impl_dataC2Ev(ptr noundef nonnull align 8 dereferenceable(80) %3) #3
  ret void
}

; Function Attrs: mustprogress nounwind uwtable
define linkonce_odr dso_local void @_ZNSt11_Deque_baseIN4Json6Reader9ErrorInfoESaIS2_EE11_Deque_implD2Ev(ptr noundef nonnull align 8 dereferenceable(80) %0) unnamed_addr #4 comdat align 2 {
  %2 = alloca ptr, align 8
  store ptr %0, ptr %2, align 8
  %3 = load ptr, ptr %2, align 8
  call void @_ZNSaIN4Json6Reader9ErrorInfoEED2Ev(ptr noundef nonnull align 1 dereferenceable(1) %3) #3
  ret void
}

; Function Attrs: mustprogress nounwind uwtable
define linkonce_odr dso_local void @_ZNSt11_Deque_baseIN4Json6Reader9ErrorInfoESaIS2_EE11_Deque_implC2Ev(ptr noundef nonnull align 8 dereferenceable(80) %0) unnamed_addr #4 comdat align 2 {
  %2 = alloca ptr, align 8
  store ptr %0, ptr %2, align 8
  %3 = load ptr, ptr %2, align 8
  call void @_ZNSaIN4Json6Reader9ErrorInfoEEC2Ev(ptr noundef nonnull align 1 dereferenceable(1) %3) #3
  call void @_ZNSt11_Deque_baseIN4Json6Reader9ErrorInfoESaIS2_EE16_Deque_impl_dataC2Ev(ptr noundef nonnull align 8 dereferenceable(80) %3) #3
  ret void
}

; Function Attrs: mustprogress uwtable
define linkonce_odr dso_local void @_ZNSt11_Deque_baseIPN4Json5ValueESaIS2_EEC2Ev(ptr noundef nonnull align 8 dereferenceable(80) %0) unnamed_addr #5 comdat align 2 personality ptr @__gxx_personality_v0 {
  %2 = alloca ptr, align 8
  %3 = alloca ptr, align 8
  %4 = alloca i32, align 4
  store ptr %0, ptr %2, align 8
  %5 = load ptr, ptr %2, align 8
  %6 = getelementptr inbounds %"class.std::_Deque_base", ptr %5, i32 0, i32 0
  call void @_ZNSt11_Deque_baseIPN4Json5ValueESaIS2_EE11_Deque_implC2Ev(ptr noundef nonnull align 8 dereferenceable(80) %6) #3
  invoke void @_ZNSt11_Deque_baseIPN4Json5ValueESaIS2_EE17_M_initialize_mapEm(ptr noundef nonnull align 8 dereferenceable(80) %5, i64 noundef 0)
          to label %7 unwind label %8

7:                                                ; preds = %1
  ret void

8:                                                ; preds = %1
  %9 = landingpad { ptr, i32 }
          cleanup
  %10 = extractvalue { ptr, i32 } %9, 0
  store ptr %10, ptr %3, align 8
  %11 = extractvalue { ptr, i32 } %9, 1
  store i32 %11, ptr %4, align 4
  call void @_ZNSt11_Deque_baseIPN4Json5ValueESaIS2_EE11_Deque_implD2Ev(ptr noundef nonnull align 8 dereferenceable(80) %6) #3
  br label %12

12:                                               ; preds = %8
  %13 = load ptr, ptr %3, align 8
  %14 = load i32, ptr %4, align 4
  %15 = insertvalue { ptr, i32 } poison, ptr %13, 0
  %16 = insertvalue { ptr, i32 } %15, i32 %14, 1
  resume { ptr, i32 } %16
}

; Function Attrs: mustprogress uwtable
define linkonce_odr dso_local void @_ZNSt11_Deque_baseIN4Json6Reader9ErrorInfoESaIS2_EEC2Ev(ptr noundef nonnull align 8 dereferenceable(80) %0) unnamed_addr #5 comdat align 2 personality ptr @__gxx_personality_v0 {
  %2 = alloca ptr, align 8
  %3 = alloca ptr, align 8
  %4 = alloca i32, align 4
  store ptr %0, ptr %2, align 8
  %5 = load ptr, ptr %2, align 8
  %6 = getelementptr inbounds %"class.std::_Deque_base.1", ptr %5, i32 0, i32 0
  call void @_ZNSt11_Deque_baseIN4Json6Reader9ErrorInfoESaIS2_EE11_Deque_implC2Ev(ptr noundef nonnull align 8 dereferenceable(80) %6) #3
  invoke void @_ZNSt11_Deque_baseIN4Json6Reader9ErrorInfoESaIS2_EE17_M_initialize_mapEm(ptr noundef nonnull align 8 dereferenceable(80) %5, i64 noundef 0)
          to label %7 unwind label %8

7:                                                ; preds = %1
  ret void

8:                                                ; preds = %1
  %9 = landingpad { ptr, i32 }
          cleanup
  %10 = extractvalue { ptr, i32 } %9, 0
  store ptr %10, ptr %3, align 8
  %11 = extractvalue { ptr, i32 } %9, 1
  store i32 %11, ptr %4, align 4
  call void @_ZNSt11_Deque_baseIN4Json6Reader9ErrorInfoESaIS2_EE11_Deque_implD2Ev(ptr noundef nonnull align 8 dereferenceable(80) %6) #3
  br label %12

12:                                               ; preds = %8
  %13 = load ptr, ptr %3, align 8
  %14 = load i32, ptr %4, align 4
  %15 = insertvalue { ptr, i32 } poison, ptr %13, 0
  %16 = insertvalue { ptr, i32 } %15, i32 %14, 1
  resume { ptr, i32 } %16
}

; Function Attrs: mustprogress uwtable
define linkonce_odr dso_local void @_ZNSt5dequeIPN4Json5ValueESaIS2_EEC2Ev(ptr noundef nonnull align 8 dereferenceable(80) %0) unnamed_addr #5 comdat align 2 {
  %2 = alloca ptr, align 8
  store ptr %0, ptr %2, align 8
  %3 = load ptr, ptr %2, align 8
  call void @_ZNSt11_Deque_baseIPN4Json5ValueESaIS2_EEC2Ev(ptr noundef nonnull align 8 dereferenceable(80) %3)
  ret void
}

; Function Attrs: mustprogress uwtable
define linkonce_odr dso_local void @_ZNSt5dequeIN4Json6Reader9ErrorInfoESaIS2_EEC2Ev(ptr noundef nonnull align 8 dereferenceable(80) %0) unnamed_addr #5 comdat align 2 {
  %2 = alloca ptr, align 8
  store ptr %0, ptr %2, align 8
  %3 = load ptr, ptr %2, align 8
  call void @_ZNSt11_Deque_baseIN4Json6Reader9ErrorInfoESaIS2_EEC2Ev(ptr noundef nonnull align 8 dereferenceable(80) %3)
  ret void
}

; Function Attrs: mustprogress uwtable
define linkonce_odr dso_local void @_ZNSt5stackIPN4Json5ValueESt5dequeIS2_SaIS2_EEEC2IS5_vEEv(ptr noundef nonnull align 8 dereferenceable(80) %0) unnamed_addr #5 comdat align 2 {
  %2 = alloca ptr, align 8
  store ptr %0, ptr %2, align 8
  %3 = load ptr, ptr %2, align 8
  %4 = getelementptr inbounds %"class.std::stack", ptr %3, i32 0, i32 0
  call void @llvm.memset.p0.i64(ptr align 8 %4, i8 0, i64 80, i1 false)
  call void @_ZNSt5dequeIPN4Json5ValueESaIS2_EEC2Ev(ptr noundef nonnull align 8 dereferenceable(80) %4)
  ret void
}

; Function Attrs: mustprogress uwtable
define dso_local void @_ZN4Json6ReaderC2ERKNS_8FeaturesE(ptr noundef nonnull align 8 dereferenceable(269) %0, ptr noundef nonnull align 1 dereferenceable(4) %1) unnamed_addr #5 align 2 personality ptr @__gxx_personality_v0 {
  %3 = alloca ptr, align 8
  %4 = alloca ptr, align 8
  %5 = alloca ptr, align 8
  %6 = alloca i32, align 4
  store ptr %0, ptr %3, align 8
  store ptr %1, ptr %4, align 8
  %7 = load ptr, ptr %3, align 8
  %8 = getelementptr inbounds %"class.Json::Reader", ptr %7, i32 0, i32 0
  call void @_ZNSt5stackIPN4Json5ValueESt5dequeIS2_SaIS2_EEEC2IS5_vEEv(ptr noundef nonnull align 8 dereferenceable(80) %8)
  %9 = getelementptr inbounds %"class.Json::Reader", ptr %7, i32 0, i32 1
  invoke void @_ZNSt5dequeIN4Json6Reader9ErrorInfoESaIS2_EEC2Ev(ptr noundef nonnull align 8 dereferenceable(80) %9)
          to label %10 unwind label %21

10:                                               ; preds = %2
  %11 = getelementptr inbounds %"class.Json::Reader", ptr %7, i32 0, i32 2
  call void @_ZNSt7__cxx1112basic_stringIcSt11char_traitsIcESaIcEEC1Ev(ptr noundef nonnull align 8 dereferenceable(32) %11) #3
  %12 = getelementptr inbounds %"class.Json::Reader", ptr %7, i32 0, i32 3
  store ptr null, ptr %12, align 8
  %13 = getelementptr inbounds %"class.Json::Reader", ptr %7, i32 0, i32 4
  store ptr null, ptr %13, align 8
  %14 = getelementptr inbounds %"class.Json::Reader", ptr %7, i32 0, i32 5
  store ptr null, ptr %14, align 8
  %15 = getelementptr inbounds %"class.Json::Reader", ptr %7, i32 0, i32 6
  store ptr null, ptr %15, align 8
  %16 = getelementptr inbounds %"class.Json::Reader", ptr %7, i32 0, i32 7
  store ptr null, ptr %16, align 8
  %17 = getelementptr inbounds %"class.Json::Reader", ptr %7, i32 0, i32 8
  call void @_ZNSt7__cxx1112basic_stringIcSt11char_traitsIcESaIcEEC1Ev(ptr noundef nonnull align 8 dereferenceable(32) %17) #3
  %18 = getelementptr inbounds %"class.Json::Reader", ptr %7, i32 0, i32 9
  %19 = load ptr, ptr %4, align 8
  call void @llvm.memcpy.p0.p0.i64(ptr align 8 %18, ptr align 1 %19, i64 4, i1 false)
  %20 = getelementptr inbounds %"class.Json::Reader", ptr %7, i32 0, i32 10
  store i8 0, ptr %20, align 4
  ret void

21:                                               ; preds = %2
  %22 = landingpad { ptr, i32 }
          cleanup
  %23 = extractvalue { ptr, i32 } %22, 0
  store ptr %23, ptr %5, align 8
  %24 = extractvalue { ptr, i32 } %22, 1
  store i32 %24, ptr %6, align 4
  call void @_ZNSt5stackIPN4Json5ValueESt5dequeIS2_SaIS2_EEED2Ev(ptr noundef nonnull align 8 dereferenceable(80) %8) #3
  br label %25

25:                                               ; preds = %21
  %26 = load ptr, ptr %5, align 8
  %27 = load i32, ptr %6, align 4
  %28 = insertvalue { ptr, i32 } poison, ptr %26, 0
  %29 = insertvalue { ptr, i32 } %28, i32 %27, 1
  resume { ptr, i32 } %29
}